target datalayout = "e-m:e-p270:32:32-p271:32:32-p272:64:64-i64:64-i128:128-f80:128-n8:16:32:64-S128"
target triple = "x86_64-pc-linux-gnu"

%struct._generic_N_Vector = type { ptr, ptr, ptr }
%struct._N_VectorContent_Serial = type { i64, i32, ptr }

; Function Attrs: nounwind uwtable
define internal i32 @f(double noundef %0, ptr noundef %1, ptr noundef %2, ptr noundef %3) #0 {
  %5 = alloca double, align 8
  %6 = alloca ptr, align 8
  %7 = alloca ptr, align 8
  %8 = alloca ptr, align 8
  %9 = alloca ptr, align 8
  %10 = alloca double, align 8
  %11 = alloca double, align 8
  %12 = alloca double, align 8
  %13 = alloca double, align 8
  %14 = alloca double, align 8
  %15 = alloca double, align 8
  store double %0, ptr %5, align 8, !tbaa !4
  store ptr %1, ptr %6, align 8, !tbaa !12
  store ptr %2, ptr %7, align 8, !tbaa !12
  store ptr %3, ptr %8, align 8, !tbaa !19
  call void @llvm.lifetime.start.p0(i64 8, ptr %9) #5
  %16 = load ptr, ptr %8, align 8, !tbaa !19
  store ptr %16, ptr %9, align 8, !tbaa !34
  call void @llvm.lifetime.start.p0(i64 8, ptr %10) #5
  %17 = load ptr, ptr %9, align 8, !tbaa !34
  %18 = getelementptr inbounds double, ptr %17, i64 0
  %19 = load double, ptr %18, align 8, !tbaa !4
  store double %19, ptr %10, align 8, !tbaa !4
  call void @llvm.lifetime.start.p0(i64 8, ptr %11) #5
  %20 = load ptr, ptr %9, align 8, !tbaa !34
  %21 = getelementptr inbounds double, ptr %20, i64 1
  %22 = load double, ptr %21, align 8, !tbaa !4
  store double %22, ptr %11, align 8, !tbaa !4
  call void @llvm.lifetime.start.p0(i64 8, ptr %12) #5
  %23 = load ptr, ptr %9, align 8, !tbaa !34
  %24 = getelementptr inbounds double, ptr %23, i64 2
  %25 = load double, ptr %24, align 8, !tbaa !4
  store double %25, ptr %12, align 8, !tbaa !4
  call void @llvm.lifetime.start.p0(i64 8, ptr %13) #5
  %26 = load ptr, ptr %6, align 8, !tbaa !12
  %27 = getelementptr inbounds nuw %struct._generic_N_Vector, ptr %26, i32 0, i32 0
  %28 = load ptr, ptr %27, align 8, !tbaa !22
  %29 = getelementptr inbounds nuw %struct._N_VectorContent_Serial, ptr %28, i32 0, i32 2
  %30 = load ptr, ptr %29, align 8, !tbaa !25
  %31 = getelementptr inbounds double, ptr %30, i64 0
  %32 = load double, ptr %31, align 8, !tbaa !4
  store double %32, ptr %13, align 8, !tbaa !4
  call void @llvm.lifetime.start.p0(i64 8, ptr %14) #5
  %33 = load ptr, ptr %6, align 8, !tbaa !12
  %34 = getelementptr inbounds nuw %struct._generic_N_Vector, ptr %33, i32 0, i32 0
  %35 = load ptr, ptr %34, align 8, !tbaa !22
  %36 = getelementptr inbounds nuw %struct._N_VectorContent_Serial, ptr %35, i32 0, i32 2
  %37 = load ptr, ptr %36, align 8, !tbaa !25
  %38 = getelementptr inbounds double, ptr %37, i64 1
  %39 = load double, ptr %38, align 8, !tbaa !4
  store double %39, ptr %14, align 8, !tbaa !4
  call void @llvm.lifetime.start.p0(i64 8, ptr %15) #5
  %40 = load ptr, ptr %6, align 8, !tbaa !12
  %41 = getelementptr inbounds nuw %struct._generic_N_Vector, ptr %40, i32 0, i32 0
  %42 = load ptr, ptr %41, align 8, !tbaa !22
  %43 = getelementptr inbounds nuw %struct._N_VectorContent_Serial, ptr %42, i32 0, i32 2
  %44 = load ptr, ptr %43, align 8, !tbaa !25
  %45 = getelementptr inbounds double, ptr %44, i64 2
  %46 = load double, ptr %45, align 8, !tbaa !4
  store double %46, ptr %15, align 8, !tbaa !4
  %47 = load double, ptr %10, align 8, !tbaa !4
  %48 = load double, ptr %15, align 8, !tbaa !4
  %49 = fadd double %48, 1.000000e+00
  %50 = load double, ptr %13, align 8, !tbaa !4
  %51 = fneg double %49
  %52 = call double @llvm.fmuladd.f64(double %51, double %50, double %47)
  %53 = load double, ptr %14, align 8, !tbaa !4
  %54 = load double, ptr %13, align 8, !tbaa !4
  %55 = fmul double %53, %54
  %56 = load double, ptr %13, align 8, !tbaa !4
  %57 = call double @llvm.fmuladd.f64(double %55, double %56, double %52)
  %58 = load ptr, ptr %7, align 8, !tbaa !12
  %59 = getelementptr inbounds nuw %struct._generic_N_Vector, ptr %58, i32 0, i32 0
  %60 = load ptr, ptr %59, align 8, !tbaa !22
  %61 = getelementptr inbounds nuw %struct._N_VectorContent_Serial, ptr %60, i32 0, i32 2
  %62 = load ptr, ptr %61, align 8, !tbaa !25
  %63 = getelementptr inbounds double, ptr %62, i64 0
  store double %57, ptr %63, align 8, !tbaa !4
  %64 = load double, ptr %15, align 8, !tbaa !4
  %65 = load double, ptr %13, align 8, !tbaa !4
  %66 = load double, ptr %14, align 8, !tbaa !4
  %67 = load double, ptr %13, align 8, !tbaa !4
  %68 = fmul double %66, %67
  %69 = load double, ptr %13, align 8, !tbaa !4
  %70 = fmul double %68, %69
  %71 = fneg double %70
  %72 = call double @llvm.fmuladd.f64(double %64, double %65, double %71)
  %73 = load ptr, ptr %7, align 8, !tbaa !12
  %74 = getelementptr inbounds nuw %struct._generic_N_Vector, ptr %73, i32 0, i32 0
  %75 = load ptr, ptr %74, align 8, !tbaa !22
  %76 = getelementptr inbounds nuw %struct._N_VectorContent_Serial, ptr %75, i32 0, i32 2
  %77 = load ptr, ptr %76, align 8, !tbaa !25
  %78 = getelementptr inbounds double, ptr %77, i64 1
  store double %72, ptr %78, align 8, !tbaa !4
  %79 = load double, ptr %11, align 8, !tbaa !4
  %80 = load double, ptr %15, align 8, !tbaa !4
  %81 = fsub double %79, %80
  %82 = load double, ptr %12, align 8, !tbaa !4
  %83 = fdiv double %81, %82
  %84 = load double, ptr %15, align 8, !tbaa !4
  %85 = load double, ptr %13, align 8, !tbaa !4
  %86 = fneg double %84
  %87 = call double @llvm.fmuladd.f64(double %86, double %85, double %83)
  %88 = load ptr, ptr %7, align 8, !tbaa !12
  %89 = getelementptr inbounds nuw %struct._generic_N_Vector, ptr %88, i32 0, i32 0
  %90 = load ptr, ptr %89, align 8, !tbaa !22
  %91 = getelementptr inbounds nuw %struct._N_VectorContent_Serial, ptr %90, i32 0, i32 2
  %92 = load ptr, ptr %91, align 8, !tbaa !25
  %93 = getelementptr inbounds double, ptr %92, i64 2
  store double %87, ptr %93, align 8, !tbaa !4
  call void @llvm.lifetime.end.p0(i64 8, ptr %15) #5
  call void @llvm.lifetime.end.p0(i64 8, ptr %14) #5
  call void @llvm.lifetime.end.p0(i64 8, ptr %13) #5
  call void @llvm.lifetime.end.p0(i64 8, ptr %12) #5
  call void @llvm.lifetime.end.p0(i64 8, ptr %11) #5
  call void @llvm.lifetime.end.p0(i64 8, ptr %10) #5
  call void @llvm.lifetime.end.p0(i64 8, ptr %9) #5
  ret i32 0
}