; Function Attrs: mustprogress nofree norecurse nosync nounwind willreturn memory(readwrite, inaccessiblemem: none) uwtable
define internal noundef i32 @f(double %0, ptr noundef readonly captures(none) %1, ptr noundef readonly captures(none) %2, ptr noundef readonly captures(none) %3) #4 {
  %5 = load double, ptr %3, align 8, !tbaa !10
  %6 = getelementptr inbounds nuw i8, ptr %3, i64 8
  %7 = load double, ptr %6, align 8, !tbaa !10
  %8 = getelementptr inbounds nuw i8, ptr %3, i64 16
  %9 = load double, ptr %8, align 8, !tbaa !10
  %10 = load ptr, ptr %1, align 8, !tbaa !14
  %11 = getelementptr inbounds nuw i8, ptr %10, i64 16
  %12 = load ptr, ptr %11, align 8, !tbaa !17
  %13 = load double, ptr %12, align 8, !tbaa !10
  %14 = getelementptr inbounds nuw i8, ptr %12, i64 8
  %15 = load double, ptr %14, align 8, !tbaa !10
  %16 = getelementptr inbounds nuw i8, ptr %12, i64 16
  %17 = load double, ptr %16, align 8, !tbaa !10
  %18 = fadd double %17, 1.000000e+00
  %19 = fneg double %18
  %20 = tail call double @llvm.fmuladd.f64(double %19, double %13, double %5)
  %21 = fmul double %13, %15
  %22 = tail call double @llvm.fmuladd.f64(double %21, double %13, double %20)
  %23 = load ptr, ptr %2, align 8, !tbaa !14
  %24 = getelementptr inbounds nuw i8, ptr %23, i64 16
  %25 = load ptr, ptr %24, align 8, !tbaa !17
  store double %22, ptr %25, align 8, !tbaa !10
  %26 = fneg double %13
  %27 = fmul double %21, %26
  %28 = tail call double @llvm.fmuladd.f64(double %17, double %13, double %27)
  %29 = getelementptr inbounds nuw i8, ptr %25, i64 8
  store double %28, ptr %29, align 8, !tbaa !10
  %30 = fsub double %7, %17
  %31 = fdiv double %30, %9
  %32 = fneg double %17
  %33 = tail call double @llvm.fmuladd.f64(double %32, double %13, double %31)
  %34 = getelementptr inbounds nuw i8, ptr %25, i64 16
  store double %33, ptr %34, align 8, !tbaa !10
  ret i32 0
}